; Function Attrs: mustprogress uwtable
define hidden void @_ZN5ceres8internal19TripletSparseMatrix16set_num_nonzerosEi(ptr nocapture noundef nonnull align 8 dereferenceable(48) %0, i32 noundef %1) local_unnamed_addr #4 align 2 personality ptr @__gxx_personality_v0 {
  %3 = alloca %"class.google::base::CheckOpMessageBuilder", align 8
  %4 = alloca %"class.google::base::CheckOpMessageBuilder", align 8
  %5 = alloca %"struct.google::CheckOpString", align 8
  %6 = alloca %"class.google::LogMessageFatal", align 8
  %7 = alloca %"struct.google::CheckOpString", align 8
  %8 = alloca %"class.google::LogMessageFatal", align 8
  %.not.i.i = icmp slt i32 %1, 0
  br i1 %.not.i.i, label %9, label %_ZN6google12Check_GEImplB5cxx11EiiPKc.exit.thread

9:                                                ; preds = %2
  call void @llvm.lifetime.start.p0(i64 8, ptr nonnull %4)
  call void @_ZN6google4base21CheckOpMessageBuilderC1EPKc(ptr noundef nonnull align 8 dereferenceable(8) %4, ptr noundef nonnull @.str.10)
  %10 = load ptr, ptr %4, align 8
  %11 = invoke noundef nonnull align 8 dereferenceable(8) ptr @_ZNSolsEi(ptr noundef nonnull align 8 dereferenceable(8) %10, i32 noundef %1)
          to label %_ZN6google22MakeCheckOpValueStringIiEEvPSoRKT_.exit.i.i.i unwind label %16

_ZN6google22MakeCheckOpValueStringIiEEvPSoRKT_.exit.i.i.i: ; preds = %9
  %12 = invoke noundef ptr @_ZN6google4base21CheckOpMessageBuilder7ForVar2Ev(ptr noundef nonnull align 8 dereferenceable(8) %4)
          to label %13 unwind label %16

13:                                               ; preds = %_ZN6google22MakeCheckOpValueStringIiEEvPSoRKT_.exit.i.i.i
  %14 = invoke noundef nonnull align 8 dereferenceable(8) ptr @_ZNSolsEi(ptr noundef nonnull align 8 dereferenceable(8) %12, i32 noundef 0)
          to label %_ZN6google22MakeCheckOpValueStringIiEEvPSoRKT_.exit4.i.i.i unwind label %16

_ZN6google22MakeCheckOpValueStringIiEEvPSoRKT_.exit4.i.i.i: ; preds = %13
  %15 = invoke noundef ptr @_ZN6google4base21CheckOpMessageBuilder9NewStringB5cxx11Ev(ptr noundef nonnull align 8 dereferenceable(8) %4)
          to label %_ZN6google12Check_GEImplB5cxx11EiiPKc.exit unwind label %16

common.resume:                                    ; preds = %32, %16
  %.sink = phi ptr [ %3, %32 ], [ %4, %16 ]
  %common.resume.op = phi { ptr, i32 } [ %33, %32 ], [ %17, %16 ]
  call void @_ZN6google4base21CheckOpMessageBuilderD1Ev(ptr noundef nonnull align 8 dereferenceable(8) %.sink) #26
  resume { ptr, i32 } %common.resume.op

16:                                               ; preds = %_ZN6google22MakeCheckOpValueStringIiEEvPSoRKT_.exit4.i.i.i, %13, %_ZN6google22MakeCheckOpValueStringIiEEvPSoRKT_.exit.i.i.i, %9
  %17 = landingpad { ptr, i32 }
          cleanup
  br label %common.resume

_ZN6google12Check_GEImplB5cxx11EiiPKc.exit:       ; preds = %_ZN6google22MakeCheckOpValueStringIiEEvPSoRKT_.exit4.i.i.i
  call void @_ZN6google4base21CheckOpMessageBuilderD1Ev(ptr noundef nonnull align 8 dereferenceable(8) %4) #26
  call void @llvm.lifetime.end.p0(i64 8, ptr nonnull %4)
  store ptr %15, ptr %5, align 8
  %.not = icmp eq ptr %15, null
  br i1 %.not, label %_ZN6google12Check_GEImplB5cxx11EiiPKc.exit.thread, label %18

18:                                               ; preds = %_ZN6google12Check_GEImplB5cxx11EiiPKc.exit
  call void @_ZN6google15LogMessageFatalC1EPKciRKNS_13CheckOpStringE(ptr noundef nonnull align 8 dereferenceable(96) %6, ptr noundef nonnull @.str.3, i32 noundef 153, ptr noundef nonnull align 8 dereferenceable(8) %5)
  %19 = invoke noundef nonnull align 8 dereferenceable(8) ptr @_ZN6google10LogMessage6streamEv(ptr noundef nonnull align 8 dereferenceable(96) %6)
          to label %20 unwind label %21

20:                                               ; preds = %18
  call void @_ZN6google15LogMessageFatalD1Ev(ptr noundef nonnull align 8 dereferenceable(96) %6) #27
  unreachable

21:                                               ; preds = %18
  %22 = landingpad { ptr, i32 }
          cleanup
  call void @_ZN6google15LogMessageFatalD1Ev(ptr noundef nonnull align 8 dereferenceable(96) %6) #27
  unreachable

_ZN6google12Check_GEImplB5cxx11EiiPKc.exit.thread: ; preds = %2, %_ZN6google12Check_GEImplB5cxx11EiiPKc.exit
  %23 = getelementptr inbounds i8, ptr %0, i64 16
  %24 = load i32, ptr %23, align 8
  %.not.i.i3 = icmp slt i32 %24, %1
  br i1 %.not.i.i3, label %25, label %_ZN6google12Check_LEImplB5cxx11EiiPKc.exit.thread

25:                                               ; preds = %_ZN6google12Check_GEImplB5cxx11EiiPKc.exit.thread
  call void @llvm.lifetime.start.p0(i64 8, ptr nonnull %3)
  call void @_ZN6google4base21CheckOpMessageBuilderC1EPKc(ptr noundef nonnull align 8 dereferenceable(8) %3, ptr noundef nonnull @.str.11)
  %26 = load ptr, ptr %3, align 8
  %27 = invoke noundef nonnull align 8 dereferenceable(8) ptr @_ZNSolsEi(ptr noundef nonnull align 8 dereferenceable(8) %26, i32 noundef %1)
          to label %_ZN6google22MakeCheckOpValueStringIiEEvPSoRKT_.exit.i.i.i5 unwind label %32

_ZN6google22MakeCheckOpValueStringIiEEvPSoRKT_.exit.i.i.i5: ; preds = %25
  %28 = invoke noundef ptr @_ZN6google4base21CheckOpMessageBuilder7ForVar2Ev(ptr noundef nonnull align 8 dereferenceable(8) %3)
          to label %29 unwind label %32

29:                                               ; preds = %_ZN6google22MakeCheckOpValueStringIiEEvPSoRKT_.exit.i.i.i5
  %30 = invoke noundef nonnull align 8 dereferenceable(8) ptr @_ZNSolsEi(ptr noundef nonnull align 8 dereferenceable(8) %28, i32 noundef %24)
          to label %_ZN6google22MakeCheckOpValueStringIiEEvPSoRKT_.exit4.i.i.i6 unwind label %32

_ZN6google22MakeCheckOpValueStringIiEEvPSoRKT_.exit4.i.i.i6: ; preds = %29
  %31 = invoke noundef ptr @_ZN6google4base21CheckOpMessageBuilder9NewStringB5cxx11Ev(ptr noundef nonnull align 8 dereferenceable(8) %3)
          to label %_ZN6google12Check_LEImplB5cxx11EiiPKc.exit unwind label %32

32:                                               ; preds = %_ZN6google22MakeCheckOpValueStringIiEEvPSoRKT_.exit4.i.i.i6, %29, %_ZN6google22MakeCheckOpValueStringIiEEvPSoRKT_.exit.i.i.i5, %25
  %33 = landingpad { ptr, i32 }
          cleanup
  br label %common.resume

_ZN6google12Check_LEImplB5cxx11EiiPKc.exit:       ; preds = %_ZN6google22MakeCheckOpValueStringIiEEvPSoRKT_.exit4.i.i.i6
  call void @_ZN6google4base21CheckOpMessageBuilderD1Ev(ptr noundef nonnull align 8 dereferenceable(8) %3) #26
  call void @llvm.lifetime.end.p0(i64 8, ptr nonnull %3)
  store ptr %31, ptr %7, align 8
  %.not10 = icmp eq ptr %31, null
  br i1 %.not10, label %_ZN6google12Check_LEImplB5cxx11EiiPKc.exit.thread, label %34

34:                                               ; preds = %_ZN6google12Check_LEImplB5cxx11EiiPKc.exit
  call void @_ZN6google15LogMessageFatalC1EPKciRKNS_13CheckOpStringE(ptr noundef nonnull align 8 dereferenceable(96) %8, ptr noundef nonnull @.str.3, i32 noundef 154, ptr noundef nonnull align 8 dereferenceable(8) %7)
  %35 = invoke noundef nonnull align 8 dereferenceable(8) ptr @_ZN6google10LogMessage6streamEv(ptr noundef nonnull align 8 dereferenceable(96) %8)
          to label %36 unwind label %37

36:                                               ; preds = %34
  call void @_ZN6google15LogMessageFatalD1Ev(ptr noundef nonnull align 8 dereferenceable(96) %8) #27
  unreachable

37:                                               ; preds = %34
  %38 = landingpad { ptr, i32 }
          cleanup
  call void @_ZN6google15LogMessageFatalD1Ev(ptr noundef nonnull align 8 dereferenceable(96) %8) #27
  unreachable

_ZN6google12Check_LEImplB5cxx11EiiPKc.exit.thread: ; preds = %_ZN6google12Check_GEImplB5cxx11EiiPKc.exit.thread, %_ZN6google12Check_LEImplB5cxx11EiiPKc.exit
  %39 = getelementptr inbounds i8, ptr %0, i64 20
  store i32 %1, ptr %39, align 4
  ret void
}